target datalayout = "e-m:e-p270:32:32-p271:32:32-p272:64:64-i64:64-i128:128-f80:128-n8:16:32:64-S128"
target triple = "x86_64-unknown-linux-gnu"

%"class.hermes::vm::JSRegExp" = type <{ %"class.hermes::vm::JSObject", %"class.hermes::vm::GCPointer.7", ptr, i32, %"class.hermes::regex::SyntaxFlags", [3 x i8], %"class.hermes::vm::GCPointer", [4 x i8] }>
%"class.hermes::vm::JSObject" = type { %"class.hermes::vm::GCCell", %"struct.hermes::vm::ObjectFlags", %"class.hermes::vm::GCPointer", %"class.hermes::vm::GCPointer.5", %"class.hermes::vm::GCPointer.6" }
%"class.hermes::vm::GCCell" = type { %union.anon.4 }
%union.anon.4 = type { %"class.hermes::vm::KindAndSize" }
%"class.hermes::vm::KindAndSize" = type { i32 }
%"struct.hermes::vm::ObjectFlags" = type { i32 }
%"class.hermes::vm::GCPointer.5" = type { %"class.hermes::vm::GCPointerBase" }
%"class.hermes::vm::GCPointerBase" = type { %"class.hermes::vm::CompressedPointer" }
%"class.hermes::vm::CompressedPointer" = type { %"class.hermes::vm::BasedPointer" }
%"class.hermes::vm::BasedPointer" = type { i32 }
%"class.hermes::vm::GCPointer.6" = type { %"class.hermes::vm::GCPointerBase" }
%"class.hermes::vm::GCPointer.7" = type { %"class.hermes::vm::GCPointerBase" }
%"class.hermes::regex::SyntaxFlags" = type { i8 }
%"class.hermes::vm::GCPointer" = type { %"class.hermes::vm::GCPointerBase" }
%"class.llvh::ArrayRef.171" = type { ptr, i64 }
%"struct.hermes::regex::RegexBytecodeHeader" = type { i16, i16, i8, i8 }

; Function Attrs: mustprogress nounwind uwtable
define linkonce_odr hidden i8 @_ZN6hermes5regex11SyntaxFlags8fromByteEh(i8 noundef zeroext %byte) #0 comdat align 2 {
entry:
  %retval = alloca %"class.hermes::regex::SyntaxFlags", align 1
  %byte.addr = alloca i8, align 1
  store i8 %byte, ptr %byte.addr, align 1
  call void @llvm.memset.p0.i64(ptr align 1 %retval, i8 0, i64 1, i1 false)
  %0 = load i8, ptr %byte.addr, align 1
  %conv = zext i8 %0 to i32
  %and = and i32 %conv, 2
  %tobool = icmp ne i32 %and, 0
  br i1 %tobool, label %if.then, label %if.end

if.then:                                          ; preds = %entry
  %bf.load = load i8, ptr %retval, align 1
  %bf.clear = and i8 %bf.load, -3
  %bf.set = or i8 %bf.clear, 2
  store i8 %bf.set, ptr %retval, align 1
  br label %if.end

if.end:                                           ; preds = %if.then, %entry
  %1 = load i8, ptr %byte.addr, align 1
  %conv1 = zext i8 %1 to i32
  %and2 = and i32 %conv1, 1
  %tobool3 = icmp ne i32 %and2, 0
  br i1 %tobool3, label %if.then4, label %if.end8

if.then4:                                         ; preds = %if.end
  %bf.load5 = load i8, ptr %retval, align 1
  %bf.clear6 = and i8 %bf.load5, -2
  %bf.set7 = or i8 %bf.clear6, 1
  store i8 %bf.set7, ptr %retval, align 1
  br label %if.end8

if.end8:                                          ; preds = %if.then4, %if.end
  %2 = load i8, ptr %byte.addr, align 1
  %conv9 = zext i8 %2 to i32
  %and10 = and i32 %conv9, 4
  %tobool11 = icmp ne i32 %and10, 0
  br i1 %tobool11, label %if.then12, label %if.end16

if.then12:                                        ; preds = %if.end8
  %bf.load13 = load i8, ptr %retval, align 1
  %bf.clear14 = and i8 %bf.load13, -5
  %bf.set15 = or i8 %bf.clear14, 4
  store i8 %bf.set15, ptr %retval, align 1
  br label %if.end16

if.end16:                                         ; preds = %if.then12, %if.end8
  %3 = load i8, ptr %byte.addr, align 1
  %conv17 = zext i8 %3 to i32
  %and18 = and i32 %conv17, 8
  %tobool19 = icmp ne i32 %and18, 0
  br i1 %tobool19, label %if.then20, label %if.end24

if.then20:                                        ; preds = %if.end16
  %bf.load21 = load i8, ptr %retval, align 1
  %bf.clear22 = and i8 %bf.load21, -9
  %bf.set23 = or i8 %bf.clear22, 8
  store i8 %bf.set23, ptr %retval, align 1
  br label %if.end24

if.end24:                                         ; preds = %if.then20, %if.end16
  %4 = load i8, ptr %byte.addr, align 1
  %conv25 = zext i8 %4 to i32
  %and26 = and i32 %conv25, 32
  %tobool27 = icmp ne i32 %and26, 0
  br i1 %tobool27, label %if.then28, label %if.end32

if.then28:                                        ; preds = %if.end24
  %bf.load29 = load i8, ptr %retval, align 1
  %bf.clear30 = and i8 %bf.load29, -33
  %bf.set31 = or i8 %bf.clear30, 32
  store i8 %bf.set31, ptr %retval, align 1
  br label %if.end32

if.end32:                                         ; preds = %if.then28, %if.end24
  %5 = load i8, ptr %byte.addr, align 1
  %conv33 = zext i8 %5 to i32
  %and34 = and i32 %conv33, 16
  %tobool35 = icmp ne i32 %and34, 0
  br i1 %tobool35, label %if.then36, label %if.end40

if.then36:                                        ; preds = %if.end32
  %bf.load37 = load i8, ptr %retval, align 1
  %bf.clear38 = and i8 %bf.load37, -17
  %bf.set39 = or i8 %bf.clear38, 16
  store i8 %bf.set39, ptr %retval, align 1
  br label %if.end40

if.end40:                                         ; preds = %if.then36, %if.end32
  %6 = load i8, ptr %byte.addr, align 1
  %conv41 = zext i8 %6 to i32
  %and42 = and i32 %conv41, 64
  %tobool43 = icmp ne i32 %and42, 0
  br i1 %tobool43, label %if.then44, label %if.end48

if.then44:                                        ; preds = %if.end40
  %bf.load45 = load i8, ptr %retval, align 1
  %bf.clear46 = and i8 %bf.load45, -65
  %bf.set47 = or i8 %bf.clear46, 64
  store i8 %bf.set47, ptr %retval, align 1
  br label %if.end48

if.end48:                                         ; preds = %if.then44, %if.end40
  %coerce.dive = getelementptr inbounds %"class.hermes::regex::SyntaxFlags", ptr %retval, i32 0, i32 0
  %7 = load i8, ptr %coerce.dive, align 1
  ret i8 %7
}

; Function Attrs: mustprogress nounwind uwtable
define linkonce_odr hidden noundef ptr @_ZNK4llvh8ArrayRefIhE4dataEv(ptr noundef nonnull align 8 dereferenceable(16) %this) #0 comdat align 2 {
entry:
  %this.addr = alloca ptr, align 8
  store ptr %this, ptr %this.addr, align 8
  %this1 = load ptr, ptr %this.addr, align 8
  %Data = getelementptr inbounds %"class.llvh::ArrayRef.171", ptr %this1, i32 0, i32 0
  %0 = load ptr, ptr %Data, align 8
  ret ptr %0
}

; Function Attrs: mustprogress nounwind uwtable
define linkonce_odr hidden noundef i64 @_ZNK4llvh8ArrayRefIhE4sizeEv(ptr noundef nonnull align 8 dereferenceable(16) %this) #0 comdat align 2 {
entry:
  %this.addr = alloca ptr, align 8
  store ptr %this, ptr %this.addr, align 8
  %this1 = load ptr, ptr %this.addr, align 8
  %Length = getelementptr inbounds %"class.llvh::ArrayRef.171", ptr %this1, i32 0, i32 1
  %0 = load i64, ptr %Length, align 8
  ret i64 %0
}

; Function Attrs: mustprogress nounwind uwtable
define hidden void @_ZN6hermes2vm8JSRegExp18initializeBytecodeEN4llvh8ArrayRefIhEE(ptr noundef nonnull align 8 dereferenceable(48) %this, ptr %bytecode.coerce0, i64 %bytecode.coerce1) #0 align 2 {
entry:
  %bytecode = alloca %"class.llvh::ArrayRef.171", align 8
  %this.addr = alloca ptr, align 8
  %sz = alloca i64, align 8
  %header = alloca ptr, align 8
  %ref.tmp = alloca %"class.hermes::regex::SyntaxFlags", align 1
  %0 = getelementptr inbounds { ptr, i64 }, ptr %bytecode, i32 0, i32 0
  store ptr %bytecode.coerce0, ptr %0, align 8
  %1 = getelementptr inbounds { ptr, i64 }, ptr %bytecode, i32 0, i32 1
  store i64 %bytecode.coerce1, ptr %1, align 8
  store ptr %this, ptr %this.addr, align 8
  %this1 = load ptr, ptr %this.addr, align 8
  %call = call noundef i64 @_ZNK4llvh8ArrayRefIhE4sizeEv(ptr noundef nonnull align 8 dereferenceable(16) %bytecode)
  store i64 %call, ptr %sz, align 8
  %call2 = call noundef ptr @_ZNK4llvh8ArrayRefIhE4dataEv(ptr noundef nonnull align 8 dereferenceable(16) %bytecode)
  store ptr %call2, ptr %header, align 8
  %2 = load ptr, ptr %header, align 8
  %syntaxFlags = getelementptr inbounds %"struct.hermes::regex::RegexBytecodeHeader", ptr %2, i32 0, i32 2
  %3 = load i8, ptr %syntaxFlags, align 1
  %call3 = call i8 @_ZN6hermes5regex11SyntaxFlags8fromByteEh(i8 noundef zeroext %3)
  %coerce.dive = getelementptr inbounds %"class.hermes::regex::SyntaxFlags", ptr %ref.tmp, i32 0, i32 0
  store i8 %call3, ptr %coerce.dive, align 1
  %syntaxFlags_ = getelementptr inbounds %"class.hermes::vm::JSRegExp", ptr %this1, i32 0, i32 4
  call void @llvm.memcpy.p0.p0.i64(ptr align 4 %syntaxFlags_, ptr align 1 %ref.tmp, i64 1, i1 false)
  %4 = load i64, ptr %sz, align 8
  %conv = trunc i64 %4 to i32
  %bytecodeSize_ = getelementptr inbounds %"class.hermes::vm::JSRegExp", ptr %this1, i32 0, i32 3
  store i32 %conv, ptr %bytecodeSize_, align 8
  %5 = load i64, ptr %sz, align 8
  %call4 = call noalias noundef nonnull ptr @_ZN6hermes13checkedMallocEm(i64 noundef %5)
  %bytecode_ = getelementptr inbounds %"class.hermes::vm::JSRegExp", ptr %this1, i32 0, i32 2
  store ptr %call4, ptr %bytecode_, align 8
  %bytecode_5 = getelementptr inbounds %"class.hermes::vm::JSRegExp", ptr %this1, i32 0, i32 2
  %6 = load ptr, ptr %bytecode_5, align 8
  %call6 = call noundef ptr @_ZNK4llvh8ArrayRefIhE4dataEv(ptr noundef nonnull align 8 dereferenceable(16) %bytecode)
  %7 = load i64, ptr %sz, align 8
  call void @llvm.memcpy.p0.p0.i64(ptr align 1 %6, ptr align 1 %call6, i64 %7, i1 false)
  ret void
}