; Function Attrs: mustprogress nounwind uwtable
define hidden void @_ZN6hermes2vm8JSRegExp18initializeBytecodeEN4llvh8ArrayRefIhEE(ptr nocapture noundef nonnull writeonly align 8 dereferenceable(48) %this, ptr nocapture readonly %bytecode.coerce0, i64 %bytecode.coerce1) local_unnamed_addr #0 align 2 {
entry:
  %syntaxFlags = getelementptr inbounds i8, ptr %bytecode.coerce0, i64 4
  %0 = load i8, ptr %syntaxFlags, align 1
  %retval.sroa.0.6.i = and i8 %0, 127
  %syntaxFlags_ = getelementptr inbounds i8, ptr %this, i64 36
  store i8 %retval.sroa.0.6.i, ptr %syntaxFlags_, align 4
  %conv = trunc i64 %bytecode.coerce1 to i32
  %bytecodeSize_ = getelementptr inbounds i8, ptr %this, i64 32
  store i32 %conv, ptr %bytecodeSize_, align 8
  %call4 = tail call noalias noundef nonnull ptr @_ZN6hermes13checkedMallocEm(i64 noundef %bytecode.coerce1) #19
  %bytecode_ = getelementptr inbounds i8, ptr %this, i64 24
  store ptr %call4, ptr %bytecode_, align 8
  tail call void @llvm.memcpy.p0.p0.i64(ptr nonnull align 1 %call4, ptr align 1 %bytecode.coerce0, i64 %bytecode.coerce1, i1 false)
  ret void
}